; ModuleID = '49/1220.c'
source_filename = "49/1220.c"
target datalayout = "e-m:e-p270:32:32-p271:32:32-p272:64:64-i64:64-f80:128-n8:16:32:64-S128"
target triple = "x86_64-pc-linux-gnu"

@.str = private unnamed_addr constant [3 x i8] c"%c\00", align 1
@.str.1 = private unnamed_addr constant [2 x i8] c"\0A\00", align 1

; Function Attrs: noinline nounwind uwtable
define dso_local i32 @main() #0 {
  %1 = alloca i32, align 4
  %2 = alloca [500 x i8], align 16
  %3 = alloca i8*, align 8
  %4 = alloca i32, align 4
  %5 = alloca i32, align 4
  %6 = alloca i32, align 4
  %7 = alloca i32, align 4
  %8 = alloca i32, align 4
  %9 = alloca i32, align 4
  %10 = alloca i32, align 4
  store i32 0, i32* %1, align 4
  %11 = getelementptr inbounds [500 x i8], [500 x i8]* %2, i64 0, i64 0
  %12 = call i32 (i8*, ...) bitcast (i32 (...)* @gets to i32 (i8*, ...)*)(i8* %11)
  %13 = getelementptr inbounds [500 x i8], [500 x i8]* %2, i64 0, i64 0
  store i8* %13, i8** %3, align 8
  %14 = getelementptr inbounds [500 x i8], [500 x i8]* %2, i64 0, i64 0
  %15 = call i64 @strlen(i8* %14) #3
  %16 = trunc i64 %15 to i32
  store i32 %16, i32* %7, align 4
  store i32 2, i32* %4, align 4
  br label %17

17:                                               ; preds = %94, %0
  %18 = load i32, i32* %4, align 4
  %19 = load i32, i32* %7, align 4
  %20 = icmp sle i32 %18, %19
  br i1 %20, label %21, label %97

21:                                               ; preds = %17
  store i32 0, i32* %5, align 4
  br label %22

22:                                               ; preds = %90, %21
  %23 = load i32, i32* %5, align 4
  %24 = load i32, i32* %7, align 4
  %25 = load i32, i32* %4, align 4
  %26 = sub nsw i32 %24, %25
  %27 = add nsw i32 %26, 1
  %28 = icmp slt i32 %23, %27
  br i1 %28, label %29, label %93

29:                                               ; preds = %22
  store i32 0, i32* %10, align 4
  store i32 0, i32* %9, align 4
  br label %30

30:                                               ; preds = %62, %29
  %31 = load i32, i32* %9, align 4
  %32 = load i32, i32* %4, align 4
  %33 = sdiv i32 %32, 2
  %34 = icmp slt i32 %31, %33
  br i1 %34, label %35, label %65

35:                                               ; preds = %30
  %36 = load i8*, i8** %3, align 8
  %37 = load i32, i32* %5, align 4
  %38 = sext i32 %37 to i64
  %39 = getelementptr inbounds i8, i8* %36, i64 %38
  %40 = load i32, i32* %9, align 4
  %41 = sext i32 %40 to i64
  %42 = getelementptr inbounds i8, i8* %39, i64 %41
  %43 = load i8, i8* %42, align 1
  %44 = sext i8 %43 to i32
  %45 = load i8*, i8** %3, align 8
  %46 = load i32, i32* %5, align 4
  %47 = sext i32 %46 to i64
  %48 = getelementptr inbounds i8, i8* %45, i64 %47
  %49 = load i32, i32* %4, align 4
  %50 = sext i32 %49 to i64
  %51 = getelementptr inbounds i8, i8* %48, i64 %50
  %52 = getelementptr inbounds i8, i8* %51, i64 -1
  %53 = load i32, i32* %9, align 4
  %54 = sext i32 %53 to i64
  %55 = sub i64 0, %54
  %56 = getelementptr inbounds i8, i8* %52, i64 %55
  %57 = load i8, i8* %56, align 1
  %58 = sext i8 %57 to i32
  %59 = icmp ne i32 %44, %58
  br i1 %59, label %60, label %61

60:                                               ; preds = %35
  store i32 1, i32* %10, align 4
  br label %65

61:                                               ; preds = %35
  br label %62

62:                                               ; preds = %61
  %63 = load i32, i32* %9, align 4
  %64 = add nsw i32 %63, 1
  store i32 %64, i32* %9, align 4
  br label %30

65:                                               ; preds = %60, %30
  %66 = load i32, i32* %10, align 4
  %67 = icmp eq i32 %66, 0
  br i1 %67, label %68, label %89

68:                                               ; preds = %65
  %69 = load i32, i32* %5, align 4
  store i32 %69, i32* %8, align 4
  br label %70

70:                                               ; preds = %84, %68
  %71 = load i32, i32* %8, align 4
  %72 = load i32, i32* %5, align 4
  %73 = load i32, i32* %4, align 4
  %74 = add nsw i32 %72, %73
  %75 = icmp slt i32 %71, %74
  br i1 %75, label %76, label %87

76:                                               ; preds = %70
  %77 = load i8*, i8** %3, align 8
  %78 = load i32, i32* %8, align 4
  %79 = sext i32 %78 to i64
  %80 = getelementptr inbounds i8, i8* %77, i64 %79
  %81 = load i8, i8* %80, align 1
  %82 = sext i8 %81 to i32
  %83 = call i32 (i8*, ...) @printf(i8* getelementptr inbounds ([3 x i8], [3 x i8]* @.str, i64 0, i64 0), i32 %82)
  br label %84

84:                                               ; preds = %76
  %85 = load i32, i32* %8, align 4
  %86 = add nsw i32 %85, 1
  store i32 %86, i32* %8, align 4
  br label %70

87:                                               ; preds = %70
  %88 = call i32 (i8*, ...) @printf(i8* getelementptr inbounds ([2 x i8], [2 x i8]* @.str.1, i64 0, i64 0))
  br label %89

89:                                               ; preds = %87, %65
  br label %90

90:                                               ; preds = %89
  %91 = load i32, i32* %5, align 4
  %92 = add nsw i32 %91, 1
  store i32 %92, i32* %5, align 4
  br label %22

93:                                               ; preds = %22
  br label %94

94:                                               ; preds = %93
  %95 = load i32, i32* %4, align 4
  %96 = add nsw i32 %95, 1
  store i32 %96, i32* %4, align 4
  br label %17

97:                                               ; preds = %17
  ret i32 0
}

declare dso_local i32 @gets(...) #1

; Function Attrs: nounwind readonly
declare dso_local i64 @strlen(i8*) #2

declare dso_local i32 @printf(i8*, ...) #1


!llvm.module.flags = !{!0}
!llvm.ident = !{!1}

!0 = !{i32 1, !"wchar_size", i32 4}
!1 = !{!"clang version 10.0.0-4ubuntu1 "}
